Certificate:
    Data:
        Version: 3 (0x2)
        Serial Number:
            f2:02:a7:60:51:08:1b:dc
    Signature Algorithm: sha256WithRSAEncryption
        Issuer: C=PT, ST=EVORA, L=EVORA, O=DECSIS, OU=DID, CN=POSTGRESLAB1
        Validity
            Not Before: Mar 17 16:30:51 2017 GMT
            Not After : Apr 16 16:30:51 2017 GMT
        Subject: C=PT, ST=EVORA, L=EVORA, O=DECSIS, OU=DID, CN=POSTGRESLAB1
        Subject Public Key Info:
            Public Key Algorithm: rsaEncryption
                Public-Key: (2048 bit)
                Modulus:
                    00:c3:f8:61:6f:0c:57:ed:60:e4:5b:27:34:85:30:
                    c4:aa:64:c4:06:6f:55:23:0b:fd:a4:7f:6c:e2:83:
                    fa:c8:9b:08:2a:59:93:b1:a9:90:1e:4a:8c:6d:3c:
                    ba:f1:de:db:72:53:05:2b:e9:58:30:96:f0:e9:bc:
                    0e:59:be:7d:33:54:76:c3:1d:1f:49:fe:eb:a0:1d:
                    87:f2:7e:1e:c8:f4:b5:df:38:be:91:1f:5c:ca:a1:
                    7d:fa:d5:59:dd:a3:0b:10:6a:3c:2d:1f:ab:21:05:
                    7b:7b:c2:6a:94:fd:f3:44:8c:3f:5b:7c:42:ab:c5:
                    41:2b:6a:07:ad:5e:60:03:08:79:5e:27:2f:59:73:
                    13:5f:6f:55:2d:cb:9b:9d:9c:13:0d:f6:90:f0:b9:
                    a9:0c:69:e9:b0:ec:71:93:80:22:75:d5:c1:72:46:
                    14:e2:b4:30:72:41:36:f0:97:34:4b:12:6d:dc:fc:
                    fc:09:f7:20:e6:64:6d:c0:18:7b:95:18:d1:dd:29:
                    f7:01:a2:f5:f3:cc:2b:a3:4f:e7:7a:b8:48:7f:d3:
                    94:d5:48:ec:6b:8b:cc:93:7d:33:4c:ba:c4:d4:85:
                    cf:5e:41:d3:92:e1:dc:08:80:d7:91:14:e3:13:57:
                    72:26:97:29:79:8b:b1:b9:4f:f0:d0:96:14:3c:da:
                    b2:b9
                Exponent: 65537 (0x10001)
        X509v3 extensions:
            X509v3 Subject Key Identifier: 
                78:B5:47:07:E3:DE:DC:84:71:D7:F6:68:45:5D:62:60:70:17:94:4E
            X509v3 Authority Key Identifier: 
                keyid:78:B5:47:07:E3:DE:DC:84:71:D7:F6:68:45:5D:62:60:70:17:94:4E

            X509v3 Basic Constraints: 
                CA:TRUE
    Signature Algorithm: sha256WithRSAEncryption
         68:6c:15:03:52:13:1c:19:38:b3:af:35:61:30:d8:1f:a0:d1:
         bd:37:41:15:a5:2b:31:0c:ed:b6:d0:a0:7f:d0:db:56:a1:c6:
         59:a9:22:08:0a:1e:4a:9f:68:40:ce:87:95:a2:00:3b:5c:c0:
         47:2c:8c:9f:93:e6:9b:be:05:ad:8f:53:1b:23:b9:42:2e:b6:
         f5:17:1a:4c:b1:c0:13:4a:b2:b7:9c:17:65:45:39:0c:9c:06:
         42:03:91:da:74:5b:ba:8a:01:e9:d8:6f:fa:60:ca:b0:03:55:
         90:d1:b2:d0:4f:81:54:ca:c0:45:69:f6:52:0d:d8:3a:39:8b:
         ff:c6:f7:26:01:4f:51:a1:af:eb:e1:97:a2:8c:5f:28:84:e2:
         77:bb:38:06:f9:cb:de:cf:44:13:63:48:e0:59:25:a6:c8:fb:
         f7:3f:48:f2:88:a1:24:05:5a:5c:fb:a8:28:dd:7f:b2:63:f9:
         a0:57:80:67:fd:12:8a:af:93:8b:b5:e9:48:0f:07:ca:49:a8:
         3f:da:89:26:f5:ca:65:b8:35:87:6f:53:72:f3:92:fb:e5:f3:
         4d:14:28:0b:b4:a6:41:5d:9c:da:11:a5:37:d2:07:52:60:6a:
         40:03:0e:7e:6c:b2:7c:07:7f:e0:70:3b:ab:42:72:30:b0:73:
         f5:d4:ce:a2
-----BEGIN CERTIFICATE-----
MIIDmTCCAoGgAwIBAgIJAPICp2BRCBvcMA0GCSqGSIb3DQEBCwUAMGMxCzAJBgNV
BAYTAlBUMQ4wDAYDVQQIDAVFVk9SQTEOMAwGA1UEBwwFRVZPUkExDzANBgNVBAoM
BkRFQ1NJUzEMMAoGA1UECwwDRElEMRUwEwYDVQQDDAxQT1NUR1JFU0xBQjEwHhcN
MTcwMzE3MTYzMDUxWhcNMTcwNDE2MTYzMDUxWjBjMQswCQYDVQQGEwJQVDEOMAwG
A1UECAwFRVZPUkExDjAMBgNVBAcMBUVWT1JBMQ8wDQYDVQQKDAZERUNTSVMxDDAK
BgNVBAsMA0RJRDEVMBMGA1UEAwwMUE9TVEdSRVNMQUIxMIIBIjANBgkqhkiG9w0B
AQEFAAOCAQ8AMIIBCgKCAQEAw/hhbwxX7WDkWyc0hTDEqmTEBm9VIwv9pH9s4oP6
yJsIKlmTsamQHkqMbTy68d7bclMFK+lYMJbw6bwOWb59M1R2wx0fSf7roB2H8n4e
yPS13zi+kR9cyqF9+tVZ3aMLEGo8LR+rIQV7e8JqlP3zRIw/W3xCq8VBK2oHrV5g
Awh5XicvWXMTX29VLcubnZwTDfaQ8LmpDGnpsOxxk4AiddXBckYU4rQwckE28Jc0
SxJt3Pz8Cfcg5mRtwBh7lRjR3Sn3AaL188wro0/nerhIf9OU1Ujsa4vMk30zTLrE
1IXPXkHTkuHcCIDXkRTjE1dyJpcpeYuxuU/w0JYUPNqyuQIDAQABo1AwTjAdBgNV
HQ4EFgQUeLVHB+Pe3IRx1/ZoRV1iYHAXlE4wHwYDVR0jBBgwFoAUeLVHB+Pe3IRx
1/ZoRV1iYHAXlE4wDAYDVR0TBAUwAwEB/zANBgkqhkiG9w0BAQsFAAOCAQEAaGwV
A1ITHBk4s681YTDYH6DRvTdBFaUrMQztttCgf9DbVqHGWakiCAoeSp9oQM6HlaIA
O1zARyyMn5Pmm74FrY9TGyO5Qi629RcaTLHAE0qyt5wXZUU5DJwGQgOR2nRbuooB
6dhv+mDKsANVkNGy0E+BVMrARWn2Ug3YOjmL/8b3JgFPUaGv6+GXooxfKITid7s4
BvnL3s9EE2NI4Fklpsj79z9I8oihJAVaXPuoKN1/smP5oFeAZ/0Siq+Ti7XpSA8H
ykmoP9qJJvXKZbg1h29TcvOS++XzTRQoC7SmQV2c2hGlN9IHUmBqQAMOfmyyfAd/
4HA7q0JyMLBz9dTOog==
-----END CERTIFICATE-----
